target datalayout = "e-m:e-p270:32:32-p271:32:32-p272:64:64-i64:64-i128:128-f80:128-n8:16:32:64-S128"
target triple = "x86_64-unknown-linux-gnu"

%"class.std::set.11" = type { %"class.std::_Rb_tree.12" }
%"class.std::_Rb_tree.12" = type { %"struct.std::_Rb_tree<QuantLib::Observer *, QuantLib::Observer *, std::_Identity<QuantLib::Observer *>, std::less<QuantLib::Observer *>>::_Rb_tree_impl" }
%"struct.std::_Rb_tree<QuantLib::Observer *, QuantLib::Observer *, std::_Identity<QuantLib::Observer *>, std::less<QuantLib::Observer *>>::_Rb_tree_impl" = type { [8 x i8], %"struct.std::_Rb_tree_header" }
%"struct.std::_Rb_tree_header" = type { %"struct.std::_Rb_tree_node_base", i64 }
%"struct.std::_Rb_tree_node_base" = type { i32, ptr, ptr, ptr }
%"class.boost::detail::shared_count" = type { ptr }
%"class.QuantLib::Array" = type { %"class.std::unique_ptr", i64 }
%"class.std::unique_ptr" = type { %"struct.std::__uniq_ptr_data" }
%"struct.std::__uniq_ptr_data" = type { %"class.std::__uniq_ptr_impl" }
%"class.std::__uniq_ptr_impl" = type { %"class.std::tuple" }
%"class.std::tuple" = type { %"struct.std::_Tuple_impl" }
%"struct.std::_Tuple_impl" = type { %"struct.std::_Head_base.1" }
%"struct.std::_Head_base.1" = type { ptr }
%"class.std::set" = type { %"class.std::_Rb_tree" }
%"class.std::_Rb_tree" = type { %"struct.std::_Rb_tree<boost::shared_ptr<QuantLib::Observable>, boost::shared_ptr<QuantLib::Observable>, std::_Identity<boost::shared_ptr<QuantLib::Observable>>, std::less<boost::shared_ptr<QuantLib::Observable>>>::_Rb_tree_impl" }
%"struct.std::_Rb_tree<boost::shared_ptr<QuantLib::Observable>, boost::shared_ptr<QuantLib::Observable>, std::_Identity<boost::shared_ptr<QuantLib::Observable>>, std::less<boost::shared_ptr<QuantLib::Observable>>>::_Rb_tree_impl" = type { [8 x i8], %"struct.std::_Rb_tree_header" }
%"class.QuantLib::Observable" = type { ptr, %"class.std::set.11" }
%"class.QuantLib::Handle" = type { %"class.boost::shared_ptr.35" }
%"class.boost::shared_ptr.35" = type { ptr, %"class.boost::detail::shared_count" }
%"class.QuantLib::ExtendedCoxIngersollRoss" = type { %"class.QuantLib::CoxIngersollRoss.base", %"class.QuantLib::TermStructureConsistentModel.base", %"class.QuantLib::Parameter", %"class.QuantLib::Observer", %"class.QuantLib::Observable" }
%"class.QuantLib::CoxIngersollRoss.base" = type { %"class.QuantLib::OneFactorAffineModel.base", ptr, ptr, ptr, ptr }
%"class.QuantLib::OneFactorAffineModel.base" = type { %"class.QuantLib::OneFactorModel.base", %"class.QuantLib::AffineModel.base" }
%"class.QuantLib::OneFactorModel.base" = type { %"class.QuantLib::ShortRateModel.base" }
%"class.QuantLib::ShortRateModel.base" = type { %"class.QuantLib::CalibratedModel.base" }
%"class.QuantLib::CalibratedModel.base" = type <{ ptr, %"class.std::vector.29", %"class.boost::shared_ptr.34", i32, [4 x i8], %"class.QuantLib::Array", i32 }>
%"class.std::vector.29" = type { %"struct.std::_Vector_base.30" }
%"struct.std::_Vector_base.30" = type { %"struct.std::_Vector_base<QuantLib::Parameter, std::allocator<QuantLib::Parameter>>::_Vector_impl" }
%"struct.std::_Vector_base<QuantLib::Parameter, std::allocator<QuantLib::Parameter>>::_Vector_impl" = type { %"struct.std::_Vector_base<QuantLib::Parameter, std::allocator<QuantLib::Parameter>>::_Vector_impl_data" }
%"struct.std::_Vector_base<QuantLib::Parameter, std::allocator<QuantLib::Parameter>>::_Vector_impl_data" = type { ptr, ptr, ptr }
%"class.boost::shared_ptr.34" = type { ptr, %"class.boost::detail::shared_count" }
%"class.QuantLib::AffineModel.base" = type { ptr }
%"class.QuantLib::TermStructureConsistentModel.base" = type { ptr, %"class.QuantLib::Handle" }
%"class.QuantLib::Parameter" = type { %"class.boost::shared_ptr.36", %"class.QuantLib::Array", %"class.QuantLib::Constraint" }
%"class.boost::shared_ptr.36" = type { ptr, %"class.boost::detail::shared_count" }
%"class.QuantLib::Constraint" = type { %"class.boost::shared_ptr.37" }
%"class.boost::shared_ptr.37" = type { ptr, %"class.boost::detail::shared_count" }
%"class.QuantLib::Observer" = type { ptr, %"class.std::set" }
%"class.QuantLib::TermStructureConsistentModel" = type { ptr, %"class.QuantLib::Handle", %"class.QuantLib::Observable" }
%"class.QuantLib::CoxIngersollRoss" = type { %"class.QuantLib::OneFactorAffineModel.base", ptr, ptr, ptr, ptr, %"class.QuantLib::Observer", %"class.QuantLib::Observable" }
%"class.boost::shared_ptr.54" = type { ptr, %"class.boost::detail::shared_count" }

@.str.11 = private unnamed_addr constant [8 x i8] c"px != 0\00", align 1
@__PRETTY_FUNCTION__._ZNK5boost10shared_ptrIN8QuantLib9Parameter4ImplEEptEv = private unnamed_addr constant [147 x i8] c"typename boost::detail::sp_member_access<T>::type boost::shared_ptr<QuantLib::Parameter::Impl>::operator->() const [T = QuantLib::Parameter::Impl]\00", align 1
@.str.12 = private unnamed_addr constant [102 x i8] c"generated/home/dtcxzyw/WorkSpace/SDK/vcpkg/installed/x64-linux/include/boost/smart_ptr/shared_ptr.hpp\00", align 1
@__PRETTY_FUNCTION__._ZNK5boost10shared_ptrIN8QuantLib18YieldTermStructureEEptEv = private unnamed_addr constant [153 x i8] c"typename boost::detail::sp_member_access<T>::type boost::shared_ptr<QuantLib::YieldTermStructure>::operator->() const [T = QuantLib::YieldTermStructure]\00", align 1

; Function Attrs: mustprogress uwtable
define linkonce_odr noundef ptr @_ZNK5boost10shared_ptrIN8QuantLib9Parameter4ImplEEptEv(ptr noundef nonnull align 8 dereferenceable(16) %this) #1 comdat align 2 {
entry:
  %this.addr = alloca ptr, align 8
  store ptr %this, ptr %this.addr, align 8, !tbaa !3
  %this1 = load ptr, ptr %this.addr, align 8
  %px = getelementptr inbounds nuw %"class.boost::shared_ptr.36", ptr %this1, i32 0, i32 0
  %0 = load ptr, ptr %px, align 8, !tbaa !104
  %cmp = icmp ne ptr %0, null
  %lnot = xor i1 %cmp, true
  %lnot2 = xor i1 %lnot, true
  %conv = zext i1 %lnot2 to i64
  %expval = call i64 @llvm.expect.i64(i64 %conv, i64 1)
  %tobool = icmp ne i64 %expval, 0
  br i1 %tobool, label %cond.true, label %cond.false

cond.true:                                        ; preds = %entry
  br label %cond.end

cond.false:                                       ; preds = %entry
  call void @_ZN5boost16assertion_failedEPKcS1_S1_l(ptr noundef @.str.11, ptr noundef @__PRETTY_FUNCTION__._ZNK5boost10shared_ptrIN8QuantLib9Parameter4ImplEEptEv, ptr noundef @.str.12, i64 noundef 784)
  br label %cond.end

cond.end:                                         ; preds = %cond.false, %cond.true
  %px3 = getelementptr inbounds nuw %"class.boost::shared_ptr.36", ptr %this1, i32 0, i32 0
  %1 = load ptr, ptr %px3, align 8, !tbaa !104
  ret ptr %1
}

; Function Attrs: mustprogress uwtable
define linkonce_odr noundef double @_ZNK8QuantLib16CoxIngersollRoss2x0Ev(ptr noundef nonnull align 8 dereferenceable(120) %this) #1 comdat align 2 {
entry:
  %this.addr = alloca ptr, align 8
  store ptr %this, ptr %this.addr, align 8, !tbaa !3
  %this1 = load ptr, ptr %this.addr, align 8
  %r0_ = getelementptr inbounds nuw %"class.QuantLib::CoxIngersollRoss", ptr %this1, i32 0, i32 4
  %0 = load ptr, ptr %r0_, align 8, !tbaa !48
  %call = call noundef double @_ZNK8QuantLib9ParameterclEd(ptr noundef nonnull align 8 dereferenceable(48) %0, double noundef 0.000000e+00)
  ret double %call
}

; Function Attrs: mustprogress uwtable
define linkonce_odr noundef double @_ZNK8QuantLib9ParameterclEd(ptr noundef nonnull align 8 dereferenceable(48) %this, double noundef %t) #1 comdat align 2 {
entry:
  %this.addr = alloca ptr, align 8
  %t.addr = alloca double, align 8
  store ptr %this, ptr %this.addr, align 8, !tbaa !3
  store double %t, ptr %t.addr, align 8, !tbaa !11
  %this1 = load ptr, ptr %this.addr, align 8
  %impl_ = getelementptr inbounds nuw %"class.QuantLib::Parameter", ptr %this1, i32 0, i32 0
  %call = call noundef ptr @_ZNK5boost10shared_ptrIN8QuantLib9Parameter4ImplEEptEv(ptr noundef nonnull align 8 dereferenceable(16) %impl_)
  %params_ = getelementptr inbounds nuw %"class.QuantLib::Parameter", ptr %this1, i32 0, i32 1
  %0 = load double, ptr %t.addr, align 8, !tbaa !11
  %vtable = load ptr, ptr %call, align 8, !tbaa !7
  %vfn = getelementptr inbounds ptr, ptr %vtable, i64 2
  %1 = load ptr, ptr %vfn, align 8
  %call2 = call noundef double %1(ptr noundef nonnull align 8 dereferenceable(8) %call, ptr noundef nonnull align 8 dereferenceable(16) %params_, double noundef %0)
  ret double %call2
}

; Function Attrs: mustprogress uwtable
define linkonce_odr noundef ptr @_ZNK5boost10shared_ptrIN8QuantLib18YieldTermStructureEEptEv(ptr noundef nonnull align 8 dereferenceable(16) %this) #1 comdat align 2 {
entry:
  %this.addr = alloca ptr, align 8
  store ptr %this, ptr %this.addr, align 8, !tbaa !3
  %this1 = load ptr, ptr %this.addr, align 8
  %px = getelementptr inbounds nuw %"class.boost::shared_ptr.54", ptr %this1, i32 0, i32 0
  %0 = load ptr, ptr %px, align 8, !tbaa !58
  %cmp = icmp ne ptr %0, null
  %lnot = xor i1 %cmp, true
  %lnot2 = xor i1 %lnot, true
  %conv = zext i1 %lnot2 to i64
  %expval = call i64 @llvm.expect.i64(i64 %conv, i64 1)
  %tobool = icmp ne i64 %expval, 0
  br i1 %tobool, label %cond.true, label %cond.false

cond.true:                                        ; preds = %entry
  br label %cond.end

cond.false:                                       ; preds = %entry
  call void @_ZN5boost16assertion_failedEPKcS1_S1_l(ptr noundef @.str.11, ptr noundef @__PRETTY_FUNCTION__._ZNK5boost10shared_ptrIN8QuantLib18YieldTermStructureEEptEv, ptr noundef @.str.12, i64 noundef 784)
  br label %cond.end

cond.end:                                         ; preds = %cond.false, %cond.true
  %px3 = getelementptr inbounds nuw %"class.boost::shared_ptr.54", ptr %this1, i32 0, i32 0
  %1 = load ptr, ptr %px3, align 8, !tbaa !58
  ret ptr %1
}

; Function Attrs: mustprogress nounwind uwtable
define linkonce_odr noundef nonnull align 8 dereferenceable(16) ptr @_ZNK8QuantLib28TermStructureConsistentModel13termStructureEv(ptr noundef nonnull align 8 dereferenceable(24) %this) #3 comdat align 2 {
entry:
  %this.addr = alloca ptr, align 8
  store ptr %this, ptr %this.addr, align 8, !tbaa !3
  %this1 = load ptr, ptr %this.addr, align 8
  %termStructure_ = getelementptr inbounds nuw %"class.QuantLib::TermStructureConsistentModel", ptr %this1, i32 0, i32 1
  ret ptr %termStructure_
}

; Function Attrs: mustprogress uwtable
define noundef double @_ZNK8QuantLib24ExtendedCoxIngersollRoss1AEdd(ptr noundef nonnull align 8 dereferenceable(192) %this, double noundef %t, double noundef %s) unnamed_addr #1 align 2 {
entry:
  %this.addr = alloca ptr, align 8
  %t.addr = alloca double, align 8
  %s.addr = alloca double, align 8
  %pt = alloca double, align 8
  %ps = alloca double, align 8
  %value = alloca double, align 8
  store ptr %this, ptr %this.addr, align 8, !tbaa !3
  store double %t, ptr %t.addr, align 8, !tbaa !11
  store double %s, ptr %s.addr, align 8, !tbaa !11
  %this1 = load ptr, ptr %this.addr, align 8
  call void @llvm.lifetime.start.p0(i64 8, ptr %pt) #16
  %add.ptr = getelementptr inbounds i8, ptr %this1, i64 120
  %call = call noundef nonnull align 8 dereferenceable(16) ptr @_ZNK8QuantLib28TermStructureConsistentModel13termStructureEv(ptr noundef nonnull align 8 dereferenceable(24) %add.ptr)
  %call2 = call noundef nonnull align 8 dereferenceable(16) ptr @_ZNK8QuantLib6HandleINS_18YieldTermStructureEEptEv(ptr noundef nonnull align 8 dereferenceable(16) %call)
  %call3 = call noundef ptr @_ZNK5boost10shared_ptrIN8QuantLib18YieldTermStructureEEptEv(ptr noundef nonnull align 8 dereferenceable(16) %call2)
  %0 = load double, ptr %t.addr, align 8, !tbaa !11
  %call4 = call noundef double @_ZNK8QuantLib18YieldTermStructure8discountEdb(ptr noundef nonnull align 8 dereferenceable(152) %call3, double noundef %0, i1 noundef zeroext false)
  store double %call4, ptr %pt, align 8, !tbaa !11
  call void @llvm.lifetime.start.p0(i64 8, ptr %ps) #16
  %add.ptr5 = getelementptr inbounds i8, ptr %this1, i64 120
  %call6 = call noundef nonnull align 8 dereferenceable(16) ptr @_ZNK8QuantLib28TermStructureConsistentModel13termStructureEv(ptr noundef nonnull align 8 dereferenceable(24) %add.ptr5)
  %call7 = call noundef nonnull align 8 dereferenceable(16) ptr @_ZNK8QuantLib6HandleINS_18YieldTermStructureEEptEv(ptr noundef nonnull align 8 dereferenceable(16) %call6)
  %call8 = call noundef ptr @_ZNK5boost10shared_ptrIN8QuantLib18YieldTermStructureEEptEv(ptr noundef nonnull align 8 dereferenceable(16) %call7)
  %1 = load double, ptr %s.addr, align 8, !tbaa !11
  %call9 = call noundef double @_ZNK8QuantLib18YieldTermStructure8discountEdb(ptr noundef nonnull align 8 dereferenceable(152) %call8, double noundef %1, i1 noundef zeroext false)
  store double %call9, ptr %ps, align 8, !tbaa !11
  call void @llvm.lifetime.start.p0(i64 8, ptr %value) #16
  %2 = load double, ptr %t.addr, align 8, !tbaa !11
  %3 = load double, ptr %s.addr, align 8, !tbaa !11
  %call10 = call noundef double @_ZNK8QuantLib16CoxIngersollRoss1AEdd(ptr noundef nonnull align 8 dereferenceable(120) %this1, double noundef %2, double noundef %3)
  %4 = load double, ptr %t.addr, align 8, !tbaa !11
  %5 = load double, ptr %s.addr, align 8, !tbaa !11
  %vtable = load ptr, ptr %this1, align 8, !tbaa !7
  %vfn = getelementptr inbounds ptr, ptr %vtable, i64 11
  %6 = load ptr, ptr %vfn, align 8
  %call11 = call noundef double %6(ptr noundef nonnull align 8 dereferenceable(120) %this1, double noundef %4, double noundef %5)
  %phi_ = getelementptr inbounds nuw %"class.QuantLib::ExtendedCoxIngersollRoss", ptr %this1, i32 0, i32 2
  %7 = load double, ptr %t.addr, align 8, !tbaa !11
  %call12 = call noundef double @_ZNK8QuantLib9ParameterclEd(ptr noundef nonnull align 8 dereferenceable(48) %phi_, double noundef %7)
  %mul = fmul double %call11, %call12
  %call13 = call double @exp(double noundef %mul) #16, !tbaa !57
  %mul14 = fmul double %call10, %call13
  %8 = load double, ptr %ps, align 8, !tbaa !11
  %9 = load double, ptr %t.addr, align 8, !tbaa !11
  %call15 = call noundef double @_ZNK8QuantLib16CoxIngersollRoss1AEdd(ptr noundef nonnull align 8 dereferenceable(120) %this1, double noundef 0.000000e+00, double noundef %9)
  %mul16 = fmul double %8, %call15
  %10 = load double, ptr %t.addr, align 8, !tbaa !11
  %vtable17 = load ptr, ptr %this1, align 8, !tbaa !7
  %vfn18 = getelementptr inbounds ptr, ptr %vtable17, i64 11
  %11 = load ptr, ptr %vfn18, align 8
  %call19 = call noundef double %11(ptr noundef nonnull align 8 dereferenceable(120) %this1, double noundef 0.000000e+00, double noundef %10)
  %fneg = fneg double %call19
  %call20 = call noundef double @_ZNK8QuantLib16CoxIngersollRoss2x0Ev(ptr noundef nonnull align 8 dereferenceable(120) %this1)
  %mul21 = fmul double %fneg, %call20
  %call22 = call double @exp(double noundef %mul21) #16, !tbaa !57
  %mul23 = fmul double %mul16, %call22
  %mul24 = fmul double %mul14, %mul23
  %12 = load double, ptr %pt, align 8, !tbaa !11
  %13 = load double, ptr %s.addr, align 8, !tbaa !11
  %call25 = call noundef double @_ZNK8QuantLib16CoxIngersollRoss1AEdd(ptr noundef nonnull align 8 dereferenceable(120) %this1, double noundef 0.000000e+00, double noundef %13)
  %mul26 = fmul double %12, %call25
  %14 = load double, ptr %s.addr, align 8, !tbaa !11
  %vtable27 = load ptr, ptr %this1, align 8, !tbaa !7
  %vfn28 = getelementptr inbounds ptr, ptr %vtable27, i64 11
  %15 = load ptr, ptr %vfn28, align 8
  %call29 = call noundef double %15(ptr noundef nonnull align 8 dereferenceable(120) %this1, double noundef 0.000000e+00, double noundef %14)
  %fneg30 = fneg double %call29
  %call31 = call noundef double @_ZNK8QuantLib16CoxIngersollRoss2x0Ev(ptr noundef nonnull align 8 dereferenceable(120) %this1)
  %mul32 = fmul double %fneg30, %call31
  %call33 = call double @exp(double noundef %mul32) #16, !tbaa !57
  %mul34 = fmul double %mul26, %call33
  %div = fdiv double %mul24, %mul34
  store double %div, ptr %value, align 8, !tbaa !11
  %16 = load double, ptr %value, align 8, !tbaa !11
  call void @llvm.lifetime.end.p0(i64 8, ptr %value) #16
  call void @llvm.lifetime.end.p0(i64 8, ptr %ps) #16
  call void @llvm.lifetime.end.p0(i64 8, ptr %pt) #16
  ret double %16
}