; Function Attrs: mustprogress uwtable
define noundef double @_ZNK8QuantLib24ExtendedCoxIngersollRoss1AEdd(ptr noundef nonnull align 8 dereferenceable(192) %this, double noundef %t, double noundef %s) unnamed_addr #1 align 2 {
entry:
  %termStructure_.i = getelementptr inbounds i8, ptr %this, i64 128
  %call2 = tail call noundef nonnull align 8 dereferenceable(16) ptr @_ZNK8QuantLib6HandleINS_18YieldTermStructureEEptEv(ptr noundef nonnull align 8 dereferenceable(16) %termStructure_.i)
  %0 = load ptr, ptr %call2, align 8, !tbaa !95
  %cmp.not.i = icmp eq ptr %0, null
  br i1 %cmp.not.i, label %cond.false.i, label %_ZNK5boost10shared_ptrIN8QuantLib18YieldTermStructureEEptEv.exit, !prof !66

cond.false.i:                                     ; preds = %entry
  tail call void @_ZN5boost16assertion_failedEPKcS1_S1_l(ptr noundef nonnull @.str.11, ptr noundef nonnull @__PRETTY_FUNCTION__._ZNK5boost10shared_ptrIN8QuantLib18YieldTermStructureEEptEv, ptr noundef nonnull @.str.12, i64 noundef 784)
  %.pre.i = load ptr, ptr %call2, align 8, !tbaa !95
  br label %_ZNK5boost10shared_ptrIN8QuantLib18YieldTermStructureEEptEv.exit

_ZNK5boost10shared_ptrIN8QuantLib18YieldTermStructureEEptEv.exit: ; preds = %entry, %cond.false.i
  %1 = phi ptr [ %0, %entry ], [ %.pre.i, %cond.false.i ]
  %call4 = tail call noundef double @_ZNK8QuantLib18YieldTermStructure8discountEdb(ptr noundef nonnull align 8 dereferenceable(152) %1, double noundef %t, i1 noundef zeroext false)
  %call7 = tail call noundef nonnull align 8 dereferenceable(16) ptr @_ZNK8QuantLib6HandleINS_18YieldTermStructureEEptEv(ptr noundef nonnull align 8 dereferenceable(16) %termStructure_.i)
  %2 = load ptr, ptr %call7, align 8, !tbaa !95
  %cmp.not.i11 = icmp eq ptr %2, null
  br i1 %cmp.not.i11, label %cond.false.i12, label %_ZNK5boost10shared_ptrIN8QuantLib18YieldTermStructureEEptEv.exit14, !prof !66

cond.false.i12:                                   ; preds = %_ZNK5boost10shared_ptrIN8QuantLib18YieldTermStructureEEptEv.exit
  tail call void @_ZN5boost16assertion_failedEPKcS1_S1_l(ptr noundef nonnull @.str.11, ptr noundef nonnull @__PRETTY_FUNCTION__._ZNK5boost10shared_ptrIN8QuantLib18YieldTermStructureEEptEv, ptr noundef nonnull @.str.12, i64 noundef 784)
  %.pre.i13 = load ptr, ptr %call7, align 8, !tbaa !95
  br label %_ZNK5boost10shared_ptrIN8QuantLib18YieldTermStructureEEptEv.exit14

_ZNK5boost10shared_ptrIN8QuantLib18YieldTermStructureEEptEv.exit14: ; preds = %_ZNK5boost10shared_ptrIN8QuantLib18YieldTermStructureEEptEv.exit, %cond.false.i12
  %3 = phi ptr [ %2, %_ZNK5boost10shared_ptrIN8QuantLib18YieldTermStructureEEptEv.exit ], [ %.pre.i13, %cond.false.i12 ]
  %call9 = tail call noundef double @_ZNK8QuantLib18YieldTermStructure8discountEdb(ptr noundef nonnull align 8 dereferenceable(152) %3, double noundef %s, i1 noundef zeroext false)
  %call10 = tail call noundef double @_ZNK8QuantLib16CoxIngersollRoss1AEdd(ptr noundef nonnull align 8 dereferenceable(120) %this, double noundef %t, double noundef %s)
  %vtable = load ptr, ptr %this, align 8, !tbaa !14
  %vfn = getelementptr inbounds i8, ptr %vtable, i64 88
  %4 = load ptr, ptr %vfn, align 8
  %call11 = tail call noundef double %4(ptr noundef nonnull align 8 dereferenceable(120) %this, double noundef %t, double noundef %s)
  %phi_ = getelementptr inbounds nuw i8, ptr %this, i64 144
  %5 = load ptr, ptr %phi_, align 8, !tbaa !64
  %cmp.not.i.i = icmp eq ptr %5, null
  br i1 %cmp.not.i.i, label %cond.false.i.i, label %_ZNK8QuantLib9ParameterclEd.exit, !prof !66

cond.false.i.i:                                   ; preds = %_ZNK5boost10shared_ptrIN8QuantLib18YieldTermStructureEEptEv.exit14
  tail call void @_ZN5boost16assertion_failedEPKcS1_S1_l(ptr noundef nonnull @.str.11, ptr noundef nonnull @__PRETTY_FUNCTION__._ZNK5boost10shared_ptrIN8QuantLib9Parameter4ImplEEptEv, ptr noundef nonnull @.str.12, i64 noundef 784)
  %.pre.i.i = load ptr, ptr %phi_, align 8, !tbaa !64
  br label %_ZNK8QuantLib9ParameterclEd.exit

_ZNK8QuantLib9ParameterclEd.exit:                 ; preds = %_ZNK5boost10shared_ptrIN8QuantLib18YieldTermStructureEEptEv.exit14, %cond.false.i.i
  %6 = phi ptr [ %5, %_ZNK5boost10shared_ptrIN8QuantLib18YieldTermStructureEEptEv.exit14 ], [ %.pre.i.i, %cond.false.i.i ]
  %params_.i = getelementptr inbounds nuw i8, ptr %this, i64 160
  %vtable.i = load ptr, ptr %6, align 8, !tbaa !14
  %vfn.i = getelementptr inbounds i8, ptr %vtable.i, i64 16
  %7 = load ptr, ptr %vfn.i, align 8
  %call2.i = tail call noundef double %7(ptr noundef nonnull align 8 dereferenceable(8) %6, ptr noundef nonnull align 8 dereferenceable(16) %params_.i, double noundef %t)
  %mul = fmul double %call11, %call2.i
  %call13 = tail call double @exp(double noundef %mul) #28, !tbaa !97
  %call15 = tail call noundef double @_ZNK8QuantLib16CoxIngersollRoss1AEdd(ptr noundef nonnull align 8 dereferenceable(120) %this, double noundef 0.000000e+00, double noundef %t)
  %vtable17 = load ptr, ptr %this, align 8, !tbaa !14
  %vfn18 = getelementptr inbounds i8, ptr %vtable17, i64 88
  %8 = load ptr, ptr %vfn18, align 8
  %call19 = tail call noundef double %8(ptr noundef nonnull align 8 dereferenceable(120) %this, double noundef 0.000000e+00, double noundef %t)
  %fneg = fneg double %call19
  %r0_.i = getelementptr inbounds nuw i8, ptr %this, i64 112
  %9 = load ptr, ptr %r0_.i, align 8, !tbaa !69
  %10 = load ptr, ptr %9, align 8, !tbaa !64
  %cmp.not.i.i.i = icmp eq ptr %10, null
  br i1 %cmp.not.i.i.i, label %cond.false.i.i.i, label %_ZNK8QuantLib16CoxIngersollRoss2x0Ev.exit, !prof !66

cond.false.i.i.i:                                 ; preds = %_ZNK8QuantLib9ParameterclEd.exit
  tail call void @_ZN5boost16assertion_failedEPKcS1_S1_l(ptr noundef nonnull @.str.11, ptr noundef nonnull @__PRETTY_FUNCTION__._ZNK5boost10shared_ptrIN8QuantLib9Parameter4ImplEEptEv, ptr noundef nonnull @.str.12, i64 noundef 784)
  %.pre.i.i.i = load ptr, ptr %9, align 8, !tbaa !64
  br label %_ZNK8QuantLib16CoxIngersollRoss2x0Ev.exit

_ZNK8QuantLib16CoxIngersollRoss2x0Ev.exit:        ; preds = %_ZNK8QuantLib9ParameterclEd.exit, %cond.false.i.i.i
  %11 = phi ptr [ %10, %_ZNK8QuantLib9ParameterclEd.exit ], [ %.pre.i.i.i, %cond.false.i.i.i ]
  %params_.i.i = getelementptr inbounds nuw i8, ptr %9, i64 16
  %vtable.i.i = load ptr, ptr %11, align 8, !tbaa !14
  %vfn.i.i = getelementptr inbounds i8, ptr %vtable.i.i, i64 16
  %12 = load ptr, ptr %vfn.i.i, align 8
  %call2.i.i = tail call noundef double %12(ptr noundef nonnull align 8 dereferenceable(8) %11, ptr noundef nonnull align 8 dereferenceable(16) %params_.i.i, double noundef 0.000000e+00)
  %mul21 = fmul double %call2.i.i, %fneg
  %call22 = tail call double @exp(double noundef %mul21) #28, !tbaa !97
  %call25 = tail call noundef double @_ZNK8QuantLib16CoxIngersollRoss1AEdd(ptr noundef nonnull align 8 dereferenceable(120) %this, double noundef 0.000000e+00, double noundef %s)
  %vtable27 = load ptr, ptr %this, align 8, !tbaa !14
  %vfn28 = getelementptr inbounds i8, ptr %vtable27, i64 88
  %13 = load ptr, ptr %vfn28, align 8
  %call29 = tail call noundef double %13(ptr noundef nonnull align 8 dereferenceable(120) %this, double noundef 0.000000e+00, double noundef %s)
  %14 = load ptr, ptr %r0_.i, align 8, !tbaa !69
  %15 = load ptr, ptr %14, align 8, !tbaa !64
  %cmp.not.i.i.i16 = icmp eq ptr %15, null
  br i1 %cmp.not.i.i.i16, label %cond.false.i.i.i21, label %_ZNK8QuantLib16CoxIngersollRoss2x0Ev.exit23, !prof !66

cond.false.i.i.i21:                               ; preds = %_ZNK8QuantLib16CoxIngersollRoss2x0Ev.exit
  tail call void @_ZN5boost16assertion_failedEPKcS1_S1_l(ptr noundef nonnull @.str.11, ptr noundef nonnull @__PRETTY_FUNCTION__._ZNK5boost10shared_ptrIN8QuantLib9Parameter4ImplEEptEv, ptr noundef nonnull @.str.12, i64 noundef 784)
  %.pre.i.i.i22 = load ptr, ptr %14, align 8, !tbaa !64
  br label %_ZNK8QuantLib16CoxIngersollRoss2x0Ev.exit23

_ZNK8QuantLib16CoxIngersollRoss2x0Ev.exit23:      ; preds = %_ZNK8QuantLib16CoxIngersollRoss2x0Ev.exit, %cond.false.i.i.i21
  %16 = phi ptr [ %15, %_ZNK8QuantLib16CoxIngersollRoss2x0Ev.exit ], [ %.pre.i.i.i22, %cond.false.i.i.i21 ]
  %fneg30 = fneg double %call29
  %mul26 = fmul double %call4, %call25
  %mul14 = fmul double %call10, %call13
  %mul16 = fmul double %call9, %call15
  %mul23 = fmul double %mul16, %call22
  %mul24 = fmul double %mul14, %mul23
  %params_.i.i17 = getelementptr inbounds nuw i8, ptr %14, i64 16
  %vtable.i.i18 = load ptr, ptr %16, align 8, !tbaa !14
  %vfn.i.i19 = getelementptr inbounds i8, ptr %vtable.i.i18, i64 16
  %17 = load ptr, ptr %vfn.i.i19, align 8
  %call2.i.i20 = tail call noundef double %17(ptr noundef nonnull align 8 dereferenceable(8) %16, ptr noundef nonnull align 8 dereferenceable(16) %params_.i.i17, double noundef 0.000000e+00)
  %mul32 = fmul double %call2.i.i20, %fneg30
  %call33 = tail call double @exp(double noundef %mul32) #28, !tbaa !97
  %mul34 = fmul double %mul26, %call33
  %div = fdiv double %mul24, %mul34
  ret double %div
}